target datalayout = "e-m:e-p270:32:32-p271:32:32-p272:64:64-i64:64-i128:128-f80:128-n8:16:32:64-S128"
target triple = "x86_64-pc-linux-gnu"

%struct.SwsInternal = type { %struct.SwsContext, ptr, ptr, ptr, ptr, i32, [2 x ptr], i32, i32, ptr, i32, i32, i32, i32, i32, i32, i32, i32, i32, i32, i32, i32, i32, i32, i32, i32, i32, i32, ptr, ptr, %struct.RangeList, [3 x ptr], [2 x [4 x i32]], [2 x [4 x ptr]], i32, double, i32, ptr, ptr, i32, [2 x i32], i32, ptr, ptr, [256 x i32], [256 x i32], [256 x float], i32, i32, ptr, i32, ptr, ptr, ptr, ptr, ptr, ptr, ptr, ptr, i32, i32, i32, i32, i32, i32, ptr, ptr, i32, i32, i32, ptr, [8 x i8], [1280 x i32], [1280 x ptr], [1280 x ptr], [1280 x ptr], [176 x i32], [4 x ptr], i32, i32, i32, [4 x i32], [4 x i32], i32, i32, i32, i32, i32, i32, i32, i32, i32, i32, i64, i64, i64, i64, i64, i64, i64, i64, i64, i64, i64, [1024 x i32], [1024 x i32], i32, i64, i64, i64, i64, i64, [1024 x i32], i64, i64, [8 x i16], [8 x i32], ptr, ptr, i32, ptr, ptr, ptr, ptr, [3 x [4 x i16]], [3 x [4 x i16]], ptr, ptr, ptr, ptr, ptr, ptr, ptr, ptr, ptr, ptr, ptr, ptr, ptr, ptr, ptr, ptr, ptr, ptr, ptr, ptr, i32, i32, i64, i64, i32, ptr, i32, ptr, i32, i32, i32, i32, i32, ptr }
%struct.SwsContext = type { ptr, ptr, i32, [2 x double], i32, i32, i32, i32, i32, i32, i32, i32, i32, i32, i32, i32, i32, i32, i32, i32, i32 }
%struct.RangeList = type { ptr, i32, i32 }
%struct.SwsFilterDescriptor = type { ptr, ptr, i32, ptr, ptr }
%struct.VScalerContext = type { [2 x ptr], ptr, i32, i32, %union.anon, ptr }
%union.anon = type { ptr }
%struct.SwsSlice = type { i32, i32, i32, i32, i32, i32, [4 x %struct.SwsPlane] }
%struct.SwsPlane = type { i32, i32, i32, ptr, ptr }

; Function Attrs: nounwind uwtable
define internal i32 @lum_planar_vscale(ptr noundef %0, ptr noundef %1, i32 noundef %2, i32 noundef %3) #0 {
  %5 = alloca ptr, align 8
  %6 = alloca ptr, align 8
  %7 = alloca i32, align 4
  %8 = alloca i32, align 4
  %9 = alloca ptr, align 8
  %10 = alloca i32, align 4
  %11 = alloca i32, align 4
  %12 = alloca i32, align 4
  %13 = alloca i32, align 4
  %14 = alloca ptr, align 8
  %15 = alloca ptr, align 8
  %16 = alloca ptr, align 8
  %17 = alloca i32, align 4
  %18 = alloca i32, align 4
  %19 = alloca ptr, align 8
  %20 = alloca ptr, align 8
  %21 = alloca ptr, align 8
  store ptr %0, ptr %5, align 8, !tbaa !4
  store ptr %1, ptr %6, align 8, !tbaa !9
  store i32 %2, ptr %7, align 4, !tbaa !48
  store i32 %3, ptr %8, align 4, !tbaa !48
  call void @llvm.lifetime.start.p0(i64 8, ptr %9) #6
  %22 = load ptr, ptr %6, align 8, !tbaa !9
  %23 = getelementptr inbounds nuw %struct.SwsFilterDescriptor, ptr %22, i32 0, i32 3
  %24 = load ptr, ptr %23, align 8, !tbaa !35
  store ptr %24, ptr %9, align 8, !tbaa !13
  call void @llvm.lifetime.start.p0(i64 4, ptr %10) #6
  %25 = load ptr, ptr %6, align 8, !tbaa !9
  %26 = getelementptr inbounds nuw %struct.SwsFilterDescriptor, ptr %25, i32 0, i32 1
  %27 = load ptr, ptr %26, align 8, !tbaa !37
  %28 = getelementptr inbounds nuw %struct.SwsSlice, ptr %27, i32 0, i32 0
  %29 = load i32, ptr %28, align 8, !tbaa !54
  store i32 %29, ptr %10, align 4, !tbaa !48
  call void @llvm.lifetime.start.p0(i64 4, ptr %11) #6
  %30 = load ptr, ptr %9, align 8, !tbaa !13
  %31 = getelementptr inbounds nuw %struct.VScalerContext, ptr %30, i32 0, i32 2
  %32 = load i32, ptr %31, align 8, !tbaa !56
  %33 = sub nsw i32 1, %32
  %34 = load ptr, ptr %9, align 8, !tbaa !13
  %35 = getelementptr inbounds nuw %struct.VScalerContext, ptr %34, i32 0, i32 1
  %36 = load ptr, ptr %35, align 8, !tbaa !58
  %37 = load i32, ptr %7, align 4, !tbaa !48
  %38 = sext i32 %37 to i64
  %39 = getelementptr inbounds i32, ptr %36, i64 %38
  %40 = load i32, ptr %39, align 4, !tbaa !48
  %41 = icmp sgt i32 %33, %40
  br i1 %41, label %42, label %47

42:                                               ; preds = %4
  %43 = load ptr, ptr %9, align 8, !tbaa !13
  %44 = getelementptr inbounds nuw %struct.VScalerContext, ptr %43, i32 0, i32 2
  %45 = load i32, ptr %44, align 8, !tbaa !56
  %46 = sub nsw i32 1, %45
  br label %55

47:                                               ; preds = %4
  %48 = load ptr, ptr %9, align 8, !tbaa !13
  %49 = getelementptr inbounds nuw %struct.VScalerContext, ptr %48, i32 0, i32 1
  %50 = load ptr, ptr %49, align 8, !tbaa !58
  %51 = load i32, ptr %7, align 4, !tbaa !48
  %52 = sext i32 %51 to i64
  %53 = getelementptr inbounds i32, ptr %50, i64 %52
  %54 = load i32, ptr %53, align 4, !tbaa !48
  br label %55

55:                                               ; preds = %47, %42
  %56 = phi i32 [ %46, %42 ], [ %54, %47 ]
  store i32 %56, ptr %11, align 4, !tbaa !48
  call void @llvm.lifetime.start.p0(i64 4, ptr %12) #6
  %57 = load i32, ptr %11, align 4, !tbaa !48
  %58 = load ptr, ptr %6, align 8, !tbaa !9
  %59 = getelementptr inbounds nuw %struct.SwsFilterDescriptor, ptr %58, i32 0, i32 0
  %60 = load ptr, ptr %59, align 8, !tbaa !36
  %61 = getelementptr inbounds nuw %struct.SwsSlice, ptr %60, i32 0, i32 6
  %62 = getelementptr inbounds [4 x %struct.SwsPlane], ptr %61, i64 0, i64 0
  %63 = getelementptr inbounds nuw %struct.SwsPlane, ptr %62, i32 0, i32 1
  %64 = load i32, ptr %63, align 4, !tbaa !59
  %65 = sub nsw i32 %57, %64
  store i32 %65, ptr %12, align 4, !tbaa !48
  call void @llvm.lifetime.start.p0(i64 4, ptr %13) #6
  %66 = load i32, ptr %7, align 4, !tbaa !48
  %67 = load ptr, ptr %6, align 8, !tbaa !9
  %68 = getelementptr inbounds nuw %struct.SwsFilterDescriptor, ptr %67, i32 0, i32 1
  %69 = load ptr, ptr %68, align 8, !tbaa !37
  %70 = getelementptr inbounds nuw %struct.SwsSlice, ptr %69, i32 0, i32 6
  %71 = getelementptr inbounds [4 x %struct.SwsPlane], ptr %70, i64 0, i64 0
  %72 = getelementptr inbounds nuw %struct.SwsPlane, ptr %71, i32 0, i32 1
  %73 = load i32, ptr %72, align 4, !tbaa !59
  %74 = sub nsw i32 %66, %73
  store i32 %74, ptr %13, align 4, !tbaa !48
  call void @llvm.lifetime.start.p0(i64 8, ptr %14) #6
  %75 = load ptr, ptr %6, align 8, !tbaa !9
  %76 = getelementptr inbounds nuw %struct.SwsFilterDescriptor, ptr %75, i32 0, i32 0
  %77 = load ptr, ptr %76, align 8, !tbaa !36
  %78 = getelementptr inbounds nuw %struct.SwsSlice, ptr %77, i32 0, i32 6
  %79 = getelementptr inbounds [4 x %struct.SwsPlane], ptr %78, i64 0, i64 0
  %80 = getelementptr inbounds nuw %struct.SwsPlane, ptr %79, i32 0, i32 3
  %81 = load ptr, ptr %80, align 8, !tbaa !62
  %82 = load i32, ptr %12, align 4, !tbaa !48
  %83 = sext i32 %82 to i64
  %84 = getelementptr inbounds ptr, ptr %81, i64 %83
  store ptr %84, ptr %14, align 8, !tbaa !63
  call void @llvm.lifetime.start.p0(i64 8, ptr %15) #6
  %85 = load ptr, ptr %6, align 8, !tbaa !9
  %86 = getelementptr inbounds nuw %struct.SwsFilterDescriptor, ptr %85, i32 0, i32 1
  %87 = load ptr, ptr %86, align 8, !tbaa !37
  %88 = getelementptr inbounds nuw %struct.SwsSlice, ptr %87, i32 0, i32 6
  %89 = getelementptr inbounds [4 x %struct.SwsPlane], ptr %88, i64 0, i64 0
  %90 = getelementptr inbounds nuw %struct.SwsPlane, ptr %89, i32 0, i32 3
  %91 = load ptr, ptr %90, align 8, !tbaa !62
  %92 = load i32, ptr %13, align 4, !tbaa !48
  %93 = sext i32 %92 to i64
  %94 = getelementptr inbounds ptr, ptr %91, i64 %93
  store ptr %94, ptr %15, align 8, !tbaa !63
  call void @llvm.lifetime.start.p0(i64 8, ptr %16) #6
  %95 = load ptr, ptr %9, align 8, !tbaa !13
  %96 = getelementptr inbounds nuw %struct.VScalerContext, ptr %95, i32 0, i32 0
  %97 = getelementptr inbounds [2 x ptr], ptr %96, i64 0, i64 0
  %98 = load ptr, ptr %97, align 8, !tbaa !64
  %99 = load ptr, ptr %9, align 8, !tbaa !13
  %100 = getelementptr inbounds nuw %struct.VScalerContext, ptr %99, i32 0, i32 3
  %101 = load i32, ptr %100, align 4, !tbaa !65
  %102 = icmp ne i32 %101, 0
  br i1 %102, label %103, label %104

103:                                              ; preds = %55
  br label %110

104:                                              ; preds = %55
  %105 = load i32, ptr %7, align 4, !tbaa !48
  %106 = load ptr, ptr %9, align 8, !tbaa !13
  %107 = getelementptr inbounds nuw %struct.VScalerContext, ptr %106, i32 0, i32 2
  %108 = load i32, ptr %107, align 8, !tbaa !56
  %109 = mul nsw i32 %105, %108
  br label %110

110:                                              ; preds = %104, %103
  %111 = phi i32 [ 0, %103 ], [ %109, %104 ]
  %112 = sext i32 %111 to i64
  %113 = getelementptr inbounds i16, ptr %98, i64 %112
  store ptr %113, ptr %16, align 8, !tbaa !64
  %114 = load ptr, ptr %9, align 8, !tbaa !13
  %115 = getelementptr inbounds nuw %struct.VScalerContext, ptr %114, i32 0, i32 2
  %116 = load i32, ptr %115, align 8, !tbaa !56
  %117 = icmp eq i32 %116, 1
  br i1 %117, label %118, label %132

118:                                              ; preds = %110
  %119 = load ptr, ptr %9, align 8, !tbaa !13
  %120 = getelementptr inbounds nuw %struct.VScalerContext, ptr %119, i32 0, i32 4
  %121 = load ptr, ptr %120, align 8, !tbaa !66
  %122 = load ptr, ptr %14, align 8, !tbaa !63
  %123 = getelementptr inbounds ptr, ptr %122, i64 0
  %124 = load ptr, ptr %123, align 8, !tbaa !67
  %125 = load ptr, ptr %15, align 8, !tbaa !63
  %126 = getelementptr inbounds ptr, ptr %125, i64 0
  %127 = load ptr, ptr %126, align 8, !tbaa !67
  %128 = load i32, ptr %10, align 4, !tbaa !48
  %129 = load ptr, ptr %5, align 8, !tbaa !4
  %130 = getelementptr inbounds nuw %struct.SwsInternal, ptr %129, i32 0, i32 118
  %131 = load ptr, ptr %130, align 8, !tbaa !68
  call void %121(ptr noundef %124, ptr noundef %127, i32 noundef %128, ptr noundef %131, i32 noundef 0)
  br label %148

132:                                              ; preds = %110
  %133 = load ptr, ptr %9, align 8, !tbaa !13
  %134 = getelementptr inbounds nuw %struct.VScalerContext, ptr %133, i32 0, i32 4
  %135 = load ptr, ptr %134, align 8, !tbaa !66
  %136 = load ptr, ptr %16, align 8, !tbaa !64
  %137 = load ptr, ptr %9, align 8, !tbaa !13
  %138 = getelementptr inbounds nuw %struct.VScalerContext, ptr %137, i32 0, i32 2
  %139 = load i32, ptr %138, align 8, !tbaa !56
  %140 = load ptr, ptr %14, align 8, !tbaa !63
  %141 = load ptr, ptr %15, align 8, !tbaa !63
  %142 = getelementptr inbounds ptr, ptr %141, i64 0
  %143 = load ptr, ptr %142, align 8, !tbaa !67
  %144 = load i32, ptr %10, align 4, !tbaa !48
  %145 = load ptr, ptr %5, align 8, !tbaa !4
  %146 = getelementptr inbounds nuw %struct.SwsInternal, ptr %145, i32 0, i32 118
  %147 = load ptr, ptr %146, align 8, !tbaa !68
  call void %135(ptr noundef %136, i32 noundef %139, ptr noundef %140, ptr noundef %143, i32 noundef %144, ptr noundef %147, i32 noundef 0)
  br label %148

148:                                              ; preds = %132, %118
  %149 = load ptr, ptr %6, align 8, !tbaa !9
  %150 = getelementptr inbounds nuw %struct.SwsFilterDescriptor, ptr %149, i32 0, i32 2
  %151 = load i32, ptr %150, align 8, !tbaa !39
  %152 = icmp ne i32 %151, 0
  br i1 %152, label %153, label %246

153:                                              ; preds = %148
  call void @llvm.lifetime.start.p0(i64 4, ptr %17) #6
  %154 = load i32, ptr %11, align 4, !tbaa !48
  %155 = load ptr, ptr %6, align 8, !tbaa !9
  %156 = getelementptr inbounds nuw %struct.SwsFilterDescriptor, ptr %155, i32 0, i32 0
  %157 = load ptr, ptr %156, align 8, !tbaa !36
  %158 = getelementptr inbounds nuw %struct.SwsSlice, ptr %157, i32 0, i32 6
  %159 = getelementptr inbounds [4 x %struct.SwsPlane], ptr %158, i64 0, i64 3
  %160 = getelementptr inbounds nuw %struct.SwsPlane, ptr %159, i32 0, i32 1
  %161 = load i32, ptr %160, align 4, !tbaa !59
  %162 = sub nsw i32 %154, %161
  store i32 %162, ptr %17, align 4, !tbaa !48
  call void @llvm.lifetime.start.p0(i64 4, ptr %18) #6
  %163 = load i32, ptr %7, align 4, !tbaa !48
  %164 = load ptr, ptr %6, align 8, !tbaa !9
  %165 = getelementptr inbounds nuw %struct.SwsFilterDescriptor, ptr %164, i32 0, i32 1
  %166 = load ptr, ptr %165, align 8, !tbaa !37
  %167 = getelementptr inbounds nuw %struct.SwsSlice, ptr %166, i32 0, i32 6
  %168 = getelementptr inbounds [4 x %struct.SwsPlane], ptr %167, i64 0, i64 3
  %169 = getelementptr inbounds nuw %struct.SwsPlane, ptr %168, i32 0, i32 1
  %170 = load i32, ptr %169, align 4, !tbaa !59
  %171 = sub nsw i32 %163, %170
  store i32 %171, ptr %18, align 4, !tbaa !48
  call void @llvm.lifetime.start.p0(i64 8, ptr %19) #6
  %172 = load ptr, ptr %6, align 8, !tbaa !9
  %173 = getelementptr inbounds nuw %struct.SwsFilterDescriptor, ptr %172, i32 0, i32 0
  %174 = load ptr, ptr %173, align 8, !tbaa !36
  %175 = getelementptr inbounds nuw %struct.SwsSlice, ptr %174, i32 0, i32 6
  %176 = getelementptr inbounds [4 x %struct.SwsPlane], ptr %175, i64 0, i64 3
  %177 = getelementptr inbounds nuw %struct.SwsPlane, ptr %176, i32 0, i32 3
  %178 = load ptr, ptr %177, align 8, !tbaa !62
  %179 = load i32, ptr %17, align 4, !tbaa !48
  %180 = sext i32 %179 to i64
  %181 = getelementptr inbounds ptr, ptr %178, i64 %180
  store ptr %181, ptr %19, align 8, !tbaa !63
  call void @llvm.lifetime.start.p0(i64 8, ptr %20) #6
  %182 = load ptr, ptr %6, align 8, !tbaa !9
  %183 = getelementptr inbounds nuw %struct.SwsFilterDescriptor, ptr %182, i32 0, i32 1
  %184 = load ptr, ptr %183, align 8, !tbaa !37
  %185 = getelementptr inbounds nuw %struct.SwsSlice, ptr %184, i32 0, i32 6
  %186 = getelementptr inbounds [4 x %struct.SwsPlane], ptr %185, i64 0, i64 3
  %187 = getelementptr inbounds nuw %struct.SwsPlane, ptr %186, i32 0, i32 3
  %188 = load ptr, ptr %187, align 8, !tbaa !62
  %189 = load i32, ptr %18, align 4, !tbaa !48
  %190 = sext i32 %189 to i64
  %191 = getelementptr inbounds ptr, ptr %188, i64 %190
  store ptr %191, ptr %20, align 8, !tbaa !63
  call void @llvm.lifetime.start.p0(i64 8, ptr %21) #6
  %192 = load ptr, ptr %9, align 8, !tbaa !13
  %193 = getelementptr inbounds nuw %struct.VScalerContext, ptr %192, i32 0, i32 0
  %194 = getelementptr inbounds [2 x ptr], ptr %193, i64 0, i64 1
  %195 = load ptr, ptr %194, align 8, !tbaa !64
  %196 = load ptr, ptr %9, align 8, !tbaa !13
  %197 = getelementptr inbounds nuw %struct.VScalerContext, ptr %196, i32 0, i32 3
  %198 = load i32, ptr %197, align 4, !tbaa !65
  %199 = icmp ne i32 %198, 0
  br i1 %199, label %200, label %201

200:                                              ; preds = %153
  br label %207

201:                                              ; preds = %153
  %202 = load i32, ptr %7, align 4, !tbaa !48
  %203 = load ptr, ptr %9, align 8, !tbaa !13
  %204 = getelementptr inbounds nuw %struct.VScalerContext, ptr %203, i32 0, i32 2
  %205 = load i32, ptr %204, align 8, !tbaa !56
  %206 = mul nsw i32 %202, %205
  br label %207

207:                                              ; preds = %201, %200
  %208 = phi i32 [ 0, %200 ], [ %206, %201 ]
  %209 = sext i32 %208 to i64
  %210 = getelementptr inbounds i16, ptr %195, i64 %209
  store ptr %210, ptr %21, align 8, !tbaa !64
  %211 = load ptr, ptr %9, align 8, !tbaa !13
  %212 = getelementptr inbounds nuw %struct.VScalerContext, ptr %211, i32 0, i32 2
  %213 = load i32, ptr %212, align 8, !tbaa !56
  %214 = icmp eq i32 %213, 1
  br i1 %214, label %215, label %229

215:                                              ; preds = %207
  %216 = load ptr, ptr %9, align 8, !tbaa !13
  %217 = getelementptr inbounds nuw %struct.VScalerContext, ptr %216, i32 0, i32 4
  %218 = load ptr, ptr %217, align 8, !tbaa !66
  %219 = load ptr, ptr %19, align 8, !tbaa !63
  %220 = getelementptr inbounds ptr, ptr %219, i64 0
  %221 = load ptr, ptr %220, align 8, !tbaa !67
  %222 = load ptr, ptr %20, align 8, !tbaa !63
  %223 = getelementptr inbounds ptr, ptr %222, i64 0
  %224 = load ptr, ptr %223, align 8, !tbaa !67
  %225 = load i32, ptr %10, align 4, !tbaa !48
  %226 = load ptr, ptr %5, align 8, !tbaa !4
  %227 = getelementptr inbounds nuw %struct.SwsInternal, ptr %226, i32 0, i32 118
  %228 = load ptr, ptr %227, align 8, !tbaa !68
  call void %218(ptr noundef %221, ptr noundef %224, i32 noundef %225, ptr noundef %228, i32 noundef 0)
  br label %245

229:                                              ; preds = %207
  %230 = load ptr, ptr %9, align 8, !tbaa !13
  %231 = getelementptr inbounds nuw %struct.VScalerContext, ptr %230, i32 0, i32 4
  %232 = load ptr, ptr %231, align 8, !tbaa !66
  %233 = load ptr, ptr %21, align 8, !tbaa !64
  %234 = load ptr, ptr %9, align 8, !tbaa !13
  %235 = getelementptr inbounds nuw %struct.VScalerContext, ptr %234, i32 0, i32 2
  %236 = load i32, ptr %235, align 8, !tbaa !56
  %237 = load ptr, ptr %19, align 8, !tbaa !63
  %238 = load ptr, ptr %20, align 8, !tbaa !63
  %239 = getelementptr inbounds ptr, ptr %238, i64 0
  %240 = load ptr, ptr %239, align 8, !tbaa !67
  %241 = load i32, ptr %10, align 4, !tbaa !48
  %242 = load ptr, ptr %5, align 8, !tbaa !4
  %243 = getelementptr inbounds nuw %struct.SwsInternal, ptr %242, i32 0, i32 118
  %244 = load ptr, ptr %243, align 8, !tbaa !68
  call void %232(ptr noundef %233, i32 noundef %236, ptr noundef %237, ptr noundef %240, i32 noundef %241, ptr noundef %244, i32 noundef 0)
  br label %245

245:                                              ; preds = %229, %215
  call void @llvm.lifetime.end.p0(i64 8, ptr %21) #6
  call void @llvm.lifetime.end.p0(i64 8, ptr %20) #6
  call void @llvm.lifetime.end.p0(i64 8, ptr %19) #6
  call void @llvm.lifetime.end.p0(i64 4, ptr %18) #6
  call void @llvm.lifetime.end.p0(i64 4, ptr %17) #6
  br label %246

246:                                              ; preds = %245, %148
  call void @llvm.lifetime.end.p0(i64 8, ptr %16) #6
  call void @llvm.lifetime.end.p0(i64 8, ptr %15) #6
  call void @llvm.lifetime.end.p0(i64 8, ptr %14) #6
  call void @llvm.lifetime.end.p0(i64 4, ptr %13) #6
  call void @llvm.lifetime.end.p0(i64 4, ptr %12) #6
  call void @llvm.lifetime.end.p0(i64 4, ptr %11) #6
  call void @llvm.lifetime.end.p0(i64 4, ptr %10) #6
  call void @llvm.lifetime.end.p0(i64 8, ptr %9) #6
  ret i32 1
}