; Function Attrs: nounwind uwtable
define internal noundef i32 @lum_planar_vscale(ptr noundef readonly captures(none) %0, ptr noundef readonly captures(none) %1, i32 noundef %2, i32 %3) #0 {
  %5 = getelementptr inbounds nuw i8, ptr %1, i64 24
  %6 = load ptr, ptr %5, align 8, !tbaa !32
  %7 = getelementptr inbounds nuw i8, ptr %1, i64 8
  %8 = load ptr, ptr %7, align 8, !tbaa !34
  %9 = load i32, ptr %8, align 8, !tbaa !45
  %10 = getelementptr inbounds nuw i8, ptr %6, i64 24
  %11 = load i32, ptr %10, align 8, !tbaa !47
  %12 = sub nsw i32 1, %11
  %13 = getelementptr inbounds nuw i8, ptr %6, i64 16
  %14 = load ptr, ptr %13, align 8, !tbaa !49
  %15 = sext i32 %2 to i64
  %16 = getelementptr inbounds i32, ptr %14, i64 %15
  %17 = load i32, ptr %16, align 4, !tbaa !50
  %. = tail call i32 @llvm.smax.i32(i32 %12, i32 %17)
  %18 = load ptr, ptr %1, align 8, !tbaa !33
  %19 = getelementptr inbounds nuw i8, ptr %18, i64 28
  %20 = load i32, ptr %19, align 4, !tbaa !51
  %21 = sub nsw i32 %., %20
  %22 = getelementptr inbounds nuw i8, ptr %8, i64 28
  %23 = load i32, ptr %22, align 4, !tbaa !51
  %24 = sub nsw i32 %2, %23
  %25 = getelementptr inbounds nuw i8, ptr %18, i64 40
  %26 = load ptr, ptr %25, align 8, !tbaa !54
  %27 = sext i32 %21 to i64
  %28 = getelementptr inbounds ptr, ptr %26, i64 %27
  %29 = getelementptr inbounds nuw i8, ptr %8, i64 40
  %30 = load ptr, ptr %29, align 8, !tbaa !54
  %31 = sext i32 %24 to i64
  %32 = getelementptr inbounds ptr, ptr %30, i64 %31
  %33 = getelementptr inbounds nuw i8, ptr %6, i64 28
  %34 = icmp eq i32 %11, 1
  br i1 %34, label %35, label %42

35:                                               ; preds = %4
  %36 = getelementptr inbounds nuw i8, ptr %6, i64 32
  %37 = load ptr, ptr %36, align 8, !tbaa !55
  %38 = load ptr, ptr %28, align 8, !tbaa !56
  %39 = load ptr, ptr %32, align 8, !tbaa !56
  %40 = getelementptr inbounds nuw i8, ptr %0, i64 52872
  %41 = load ptr, ptr %40, align 8, !tbaa !57
  tail call void %37(ptr noundef %38, ptr noundef %39, i32 noundef %9, ptr noundef %41, i32 noundef 0) #5
  br label %53

42:                                               ; preds = %4
  %43 = load i32, ptr %33, align 4, !tbaa !58
  %.not = icmp eq i32 %43, 0
  %44 = mul nsw i32 %11, %2
  %narrow = select i1 %.not, i32 %44, i32 0
  %45 = sext i32 %narrow to i64
  %46 = load ptr, ptr %6, align 8, !tbaa !59
  %47 = getelementptr inbounds i16, ptr %46, i64 %45
  %48 = getelementptr inbounds nuw i8, ptr %6, i64 32
  %49 = load ptr, ptr %48, align 8, !tbaa !55
  %50 = load ptr, ptr %32, align 8, !tbaa !56
  %51 = getelementptr inbounds nuw i8, ptr %0, i64 52872
  %52 = load ptr, ptr %51, align 8, !tbaa !57
  tail call void %49(ptr noundef %47, i32 noundef %11, ptr noundef %28, ptr noundef %50, i32 noundef %9, ptr noundef %52, i32 noundef 0) #5
  br label %53

53:                                               ; preds = %42, %35
  %54 = getelementptr inbounds nuw i8, ptr %1, i64 16
  %55 = load i32, ptr %54, align 8, !tbaa !36
  %.not61 = icmp eq i32 %55, 0
  br i1 %.not61, label %90, label %thread-pre-split

thread-pre-split:                                 ; preds = %53
  %56 = load ptr, ptr %1, align 8, !tbaa !33
  %57 = getelementptr inbounds nuw i8, ptr %56, i64 124
  %58 = load i32, ptr %57, align 4, !tbaa !51
  %59 = sub nsw i32 %., %58
  %60 = load ptr, ptr %7, align 8, !tbaa !34
  %61 = getelementptr inbounds nuw i8, ptr %60, i64 124
  %62 = load i32, ptr %61, align 4, !tbaa !51
  %63 = sub nsw i32 %2, %62
  %64 = getelementptr inbounds nuw i8, ptr %56, i64 136
  %65 = load ptr, ptr %64, align 8, !tbaa !54
  %66 = sext i32 %59 to i64
  %67 = getelementptr inbounds ptr, ptr %65, i64 %66
  %68 = getelementptr inbounds nuw i8, ptr %60, i64 136
  %69 = load ptr, ptr %68, align 8, !tbaa !54
  %70 = sext i32 %63 to i64
  %71 = getelementptr inbounds ptr, ptr %69, i64 %70
  %72 = load i32, ptr %10, align 8, !tbaa !47
  %73 = icmp eq i32 %72, 1
  %74 = load ptr, ptr %71, align 8, !tbaa !56
  %75 = getelementptr inbounds nuw i8, ptr %0, i64 52872
  %76 = load ptr, ptr %75, align 8, !tbaa !57
  br i1 %73, label %77, label %81

77:                                               ; preds = %thread-pre-split
  %78 = getelementptr inbounds nuw i8, ptr %6, i64 32
  %79 = load ptr, ptr %78, align 8, !tbaa !55
  %80 = load ptr, ptr %67, align 8, !tbaa !56
  tail call void %79(ptr noundef %80, ptr noundef %74, i32 noundef %9, ptr noundef %76, i32 noundef 0) #5
  br label %90

81:                                               ; preds = %thread-pre-split
  %82 = load i32, ptr %33, align 4, !tbaa !58
  %.not62 = icmp eq i32 %82, 0
  %83 = mul nsw i32 %72, %2
  %narrow63 = select i1 %.not62, i32 %83, i32 0
  %84 = sext i32 %narrow63 to i64
  %85 = getelementptr inbounds nuw i8, ptr %6, i64 8
  %86 = load ptr, ptr %85, align 8, !tbaa !59
  %87 = getelementptr inbounds i16, ptr %86, i64 %84
  %88 = getelementptr inbounds nuw i8, ptr %6, i64 32
  %89 = load ptr, ptr %88, align 8, !tbaa !55
  tail call void %89(ptr noundef %87, i32 noundef %72, ptr noundef %67, ptr noundef %74, i32 noundef %9, ptr noundef %76, i32 noundef 0) #5
  br label %90

90:                                               ; preds = %77, %81, %53
  ret i32 1
}